; Function Attrs: mustprogress uwtable
define noundef nonnull align 8 dereferenceable(24) ptr @_ZN3gmx29DensityFittingAmplitudeLookupclENS_8ArrayRefIKfEES3_NS1_IKiEE(ptr nocapture noundef nonnull readonly align 8 dereferenceable(8) %0, ptr %1, ptr %2, ptr %3, ptr %4, ptr nocapture noundef readonly byval(%"class.gmx::ArrayRef.26") align 8 %5) local_unnamed_addr #0 align 2 {
  %7 = alloca %"class.gmx::ArrayRef.26", align 8
  %8 = load ptr, ptr %0, align 8
  %9 = ptrtoint ptr %2 to i64
  %10 = ptrtoint ptr %1 to i64
  %11 = sub i64 %9, %10
  %12 = getelementptr inbounds i8, ptr %1, i64 %11
  %13 = ptrtoint ptr %4 to i64
  %14 = ptrtoint ptr %3 to i64
  %15 = sub i64 %13, %14
  %16 = getelementptr inbounds i8, ptr %3, i64 %15
  %17 = load ptr, ptr %5, align 8
  store ptr %17, ptr %7, align 8
  %18 = getelementptr inbounds i8, ptr %7, i64 8
  %19 = getelementptr inbounds i8, ptr %5, i64 8
  %20 = load ptr, ptr %19, align 8
  %21 = ptrtoint ptr %20 to i64
  %22 = ptrtoint ptr %17 to i64
  %23 = sub i64 %21, %22
  %24 = getelementptr inbounds i8, ptr %17, i64 %23
  store ptr %24, ptr %18, align 8
  %25 = load ptr, ptr %8, align 8
  %26 = getelementptr inbounds i8, ptr %25, i64 16
  %27 = load ptr, ptr %26, align 8
  %28 = tail call noundef nonnull align 8 dereferenceable(24) ptr %27(ptr noundef nonnull align 8 dereferenceable(8) %8, ptr %1, ptr %12, ptr %3, ptr %16, ptr noundef nonnull byval(%"class.gmx::ArrayRef.26") align 8 %7)
  ret ptr %28
}